target datalayout = "e-m:e-p270:32:32-p271:32:32-p272:64:64-i64:64-i128:128-f80:128-n8:16:32:64-S128"
target triple = "x86_64-pc-linux-gnu"

%struct._ir_insn = type { %struct.anon, %union.anon.6 }
%struct.anon = type { %union.anon.0, %union.anon.5 }
%union.anon.0 = type { i32 }
%union.anon.5 = type { i32 }
%union.anon.6 = type { %union._ir_val }
%union._ir_val = type { double }
%struct.anon.7 = type { i32, i32 }
%struct._ir_ctx = type { ptr, i32, i32, i32, i32, i32, i32, i32, i32, i32, i32, %struct._ir_insn, ptr, ptr, ptr, i32, i32, i32, ptr, ptr, ptr, ptr, ptr, i32, i32, i64, i32, i32, i32, i64, i32, i32, i32, i32, ptr, ptr, ptr, ptr, ptr, ptr, %union.anon.14, ptr, i32, i32, i32, i64, i32, i32, i32, ptr, ptr, ptr, ptr, %struct._ir_strtab, [61 x i32], [14 x i32] }
%union.anon.14 = type { ptr }
%struct._ir_strtab = type { ptr, i32, i32, i32, i32, ptr, i32, i32 }
%struct.anon.1 = type { %union.anon.2, %union.anon.4 }
%union.anon.2 = type { i16 }
%union.anon.4 = type { i16 }
%struct.anon.3 = type { i8, i8 }
%struct.anon.8 = type { %union.anon.9, i32 }
%union.anon.9 = type { i32 }
%struct._ir_loader = type { i32, ptr, ptr, ptr, ptr, ptr, ptr, ptr, ptr, ptr, ptr, ptr, ptr, ptr, ptr }

; Function Attrs: nounwind uwtable
define hidden ptr @ir_resolve_sym_name(ptr noundef %0) #0 {
  %2 = alloca ptr, align 8
  %3 = alloca ptr, align 8
  %4 = alloca ptr, align 8
  store ptr %0, ptr %2, align 8
  store ptr null, ptr %3, align 8
  store ptr null, ptr %3, align 8
  %5 = load ptr, ptr %3, align 8
  %6 = load ptr, ptr %2, align 8
  %7 = call ptr @dlsym(ptr noundef %5, ptr noundef %6) #11
  store ptr %7, ptr %4, align 8
  %8 = load ptr, ptr %4, align 8
  ret ptr %8
}

; Function Attrs: nounwind uwtable
define internal ptr @ir_sym_val(ptr noundef %0, ptr noundef %1) #0 {
  %3 = alloca ptr, align 8
  %4 = alloca ptr, align 8
  %5 = alloca ptr, align 8
  %6 = alloca ptr, align 8
  store ptr %0, ptr %3, align 8
  store ptr %1, ptr %4, align 8
  %7 = load ptr, ptr %3, align 8
  %8 = load ptr, ptr %4, align 8
  %9 = getelementptr inbounds %struct._ir_insn, ptr %8, i32 0, i32 1
  %10 = getelementptr inbounds %struct.anon.8, ptr %9, i32 0, i32 0
  %11 = load i32, ptr %10, align 8
  %12 = call ptr @ir_get_str(ptr noundef %7, i32 noundef %11)
  store ptr %12, ptr %5, align 8
  %13 = load ptr, ptr %3, align 8
  %14 = getelementptr inbounds %struct._ir_ctx, ptr %13, i32 0, i32 52
  %15 = load ptr, ptr %14, align 8
  %16 = icmp ne ptr %15, null
  br i1 %16, label %17, label %43

17:                                               ; preds = %2
  %18 = load ptr, ptr %3, align 8
  %19 = getelementptr inbounds %struct._ir_ctx, ptr %18, i32 0, i32 52
  %20 = load ptr, ptr %19, align 8
  %21 = getelementptr inbounds %struct._ir_loader, ptr %20, i32 0, i32 12
  %22 = load ptr, ptr %21, align 8
  %23 = icmp ne ptr %22, null
  br i1 %23, label %24, label %43

24:                                               ; preds = %17
  %25 = load ptr, ptr %3, align 8
  %26 = getelementptr inbounds %struct._ir_ctx, ptr %25, i32 0, i32 52
  %27 = load ptr, ptr %26, align 8
  %28 = getelementptr inbounds %struct._ir_loader, ptr %27, i32 0, i32 12
  %29 = load ptr, ptr %28, align 8
  %30 = load ptr, ptr %3, align 8
  %31 = getelementptr inbounds %struct._ir_ctx, ptr %30, i32 0, i32 52
  %32 = load ptr, ptr %31, align 8
  %33 = load ptr, ptr %5, align 8
  %34 = load ptr, ptr %4, align 8
  %35 = getelementptr inbounds %struct._ir_insn, ptr %34, i32 0, i32 0
  %36 = getelementptr inbounds %struct.anon, ptr %35, i32 0, i32 0
  %37 = getelementptr inbounds %struct.anon.1, ptr %36, i32 0, i32 0
  %38 = getelementptr inbounds %struct.anon.3, ptr %37, i32 0, i32 0
  %39 = load i8, ptr %38, align 8
  %40 = zext i8 %39 to i32
  %41 = icmp eq i32 %40, 66
  %42 = call ptr %29(ptr noundef %32, ptr noundef %33, i1 noundef zeroext %41)
  br label %46

43:                                               ; preds = %17, %2
  %44 = load ptr, ptr %5, align 8
  %45 = call ptr @ir_resolve_sym_name(ptr noundef %44)
  br label %46

46:                                               ; preds = %43, %24
  %47 = phi ptr [ %42, %24 ], [ %45, %43 ]
  store ptr %47, ptr %6, align 8
  %48 = load ptr, ptr %6, align 8
  ret ptr %48
}

; Function Attrs: nounwind uwtable
define internal i64 @ir_fuse_addr_const(ptr noundef %0, i32 noundef %1) #0 {
  %3 = alloca i8, align 1
  %4 = alloca i32, align 4
  %5 = alloca i8, align 1
  %6 = alloca i32, align 4
  %7 = alloca i64, align 8
  %8 = alloca i8, align 1
  %9 = alloca i32, align 4
  %10 = alloca i8, align 1
  %11 = alloca i32, align 4
  %12 = alloca i64, align 8
  %13 = alloca ptr, align 8
  %14 = alloca i32, align 4
  %15 = alloca i64, align 8
  %16 = alloca ptr, align 8
  %17 = alloca ptr, align 8
  store ptr %0, ptr %13, align 8
  store i32 %1, ptr %14, align 4
  %18 = load ptr, ptr %13, align 8
  %19 = getelementptr inbounds %struct._ir_ctx, ptr %18, i32 0, i32 0
  %20 = load ptr, ptr %19, align 8
  %21 = load i32, ptr %14, align 4
  %22 = sext i32 %21 to i64
  %23 = getelementptr inbounds %struct._ir_insn, ptr %20, i64 %22
  store ptr %23, ptr %16, align 8
  %24 = load ptr, ptr %16, align 8
  %25 = getelementptr inbounds %struct._ir_insn, ptr %24, i32 0, i32 0
  %26 = getelementptr inbounds %struct.anon, ptr %25, i32 0, i32 0
  %27 = getelementptr inbounds %struct.anon.1, ptr %26, i32 0, i32 0
  %28 = getelementptr inbounds %struct.anon.3, ptr %27, i32 0, i32 0
  %29 = load i8, ptr %28, align 8
  %30 = zext i8 %29 to i32
  %31 = icmp eq i32 %30, 68
  br i1 %31, label %50, label %32

32:                                               ; preds = %2
  %33 = load ptr, ptr %16, align 8
  %34 = getelementptr inbounds %struct._ir_insn, ptr %33, i32 0, i32 0
  %35 = getelementptr inbounds %struct.anon, ptr %34, i32 0, i32 0
  %36 = getelementptr inbounds %struct.anon.1, ptr %35, i32 0, i32 0
  %37 = getelementptr inbounds %struct.anon.3, ptr %36, i32 0, i32 0
  %38 = load i8, ptr %37, align 8
  %39 = zext i8 %38 to i32
  %40 = icmp eq i32 %39, 67
  br i1 %40, label %50, label %41

41:                                               ; preds = %32
  %42 = load ptr, ptr %16, align 8
  %43 = getelementptr inbounds %struct._ir_insn, ptr %42, i32 0, i32 0
  %44 = getelementptr inbounds %struct.anon, ptr %43, i32 0, i32 0
  %45 = getelementptr inbounds %struct.anon.1, ptr %44, i32 0, i32 0
  %46 = getelementptr inbounds %struct.anon.3, ptr %45, i32 0, i32 0
  %47 = load i8, ptr %46, align 8
  %48 = zext i8 %47 to i32
  %49 = icmp eq i32 %48, 66
  br i1 %49, label %50, label %73

50:                                               ; preds = %41, %32, %2
  %51 = load ptr, ptr %13, align 8
  %52 = load ptr, ptr %16, align 8
  %53 = call ptr @ir_sym_val(ptr noundef %51, ptr noundef %52)
  store ptr %53, ptr %17, align 8
  %54 = load ptr, ptr %17, align 8
  %55 = ptrtoint ptr %54 to i64
  %56 = trunc i64 %55 to i32
  store i8 -1, ptr %3, align 1
  store i32 %56, ptr %4, align 4
  store i8 -1, ptr %5, align 1
  store i32 1, ptr %6, align 4
  %57 = load i32, ptr %4, align 4
  %58 = zext i32 %57 to i64
  %59 = load i8, ptr %3, align 1
  %60 = zext i8 %59 to i64
  %61 = shl i64 %60, 32
  %62 = or i64 %58, %61
  %63 = load i8, ptr %5, align 1
  %64 = zext i8 %63 to i64
  %65 = shl i64 %64, 40
  %66 = or i64 %62, %65
  %67 = load i32, ptr %6, align 4
  %68 = trunc i32 %67 to i8
  %69 = zext i8 %68 to i64
  %70 = shl i64 %69, 48
  %71 = or i64 %66, %70
  store i64 %71, ptr %7, align 8
  %72 = load i64, ptr %7, align 8
  store i64 %72, ptr %15, align 8
  br label %94

73:                                               ; preds = %41
  %74 = load ptr, ptr %16, align 8
  %75 = getelementptr inbounds %struct._ir_insn, ptr %74, i32 0, i32 1
  %76 = getelementptr inbounds %struct.anon.8, ptr %75, i32 0, i32 0
  %77 = load i32, ptr %76, align 8
  store i8 -1, ptr %8, align 1
  store i32 %77, ptr %9, align 4
  store i8 -1, ptr %10, align 1
  store i32 1, ptr %11, align 4
  %78 = load i32, ptr %9, align 4
  %79 = zext i32 %78 to i64
  %80 = load i8, ptr %8, align 1
  %81 = zext i8 %80 to i64
  %82 = shl i64 %81, 32
  %83 = or i64 %79, %82
  %84 = load i8, ptr %10, align 1
  %85 = zext i8 %84 to i64
  %86 = shl i64 %85, 40
  %87 = or i64 %83, %86
  %88 = load i32, ptr %11, align 4
  %89 = trunc i32 %88 to i8
  %90 = zext i8 %89 to i64
  %91 = shl i64 %90, 48
  %92 = or i64 %87, %91
  store i64 %92, ptr %12, align 8
  %93 = load i64, ptr %12, align 8
  store i64 %93, ptr %15, align 8
  br label %94

94:                                               ; preds = %73, %50
  %95 = load i64, ptr %15, align 8
  ret i64 %95
}

; Function Attrs: nounwind uwtable
define internal i64 @ir_fuse_mem(ptr noundef %0, i32 noundef %1, i32 noundef %2, ptr noundef %3, i8 noundef signext %4) #0 {
  %6 = alloca i8, align 1
  %7 = alloca i32, align 4
  %8 = alloca i8, align 1
  %9 = alloca i32, align 4
  %10 = alloca i64, align 8
  %11 = alloca i64, align 8
  %12 = alloca ptr, align 8
  %13 = alloca i32, align 4
  %14 = alloca i32, align 4
  %15 = alloca ptr, align 8
  %16 = alloca i8, align 1
  store ptr %0, ptr %12, align 8
  store i32 %1, ptr %13, align 4
  store i32 %2, ptr %14, align 4
  store ptr %3, ptr %15, align 8
  store i8 %4, ptr %16, align 1
  %17 = load i8, ptr %16, align 1
  %18 = sext i8 %17 to i32
  %19 = icmp ne i32 %18, -1
  br i1 %19, label %20, label %67

20:                                               ; preds = %5
  %21 = load i8, ptr %16, align 1
  %22 = sext i8 %21 to i32
  %23 = and i32 %22, 192
  %24 = icmp ne i32 %23, 0
  br i1 %24, label %31, label %25

25:                                               ; preds = %20
  %26 = load ptr, ptr %15, align 8
  %27 = getelementptr inbounds %struct._ir_insn, ptr %26, i32 0, i32 1
  %28 = getelementptr inbounds %struct.anon.7, ptr %27, i32 0, i32 0
  %29 = load i32, ptr %28, align 8
  %30 = icmp slt i32 %29, 0
  br i1 %30, label %31, label %49

31:                                               ; preds = %25, %20
  %32 = load i8, ptr %16, align 1
  %33 = sext i8 %32 to i32
  %34 = icmp eq i32 %33, -1
  br i1 %34, label %35, label %36

35:                                               ; preds = %31
  br label %40

36:                                               ; preds = %31
  %37 = load i8, ptr %16, align 1
  %38 = sext i8 %37 to i32
  %39 = and i32 %38, -193
  br label %40

40:                                               ; preds = %36, %35
  %41 = phi i32 [ -1, %35 ], [ %39, %36 ]
  %42 = trunc i32 %41 to i8
  store i8 %42, ptr %16, align 1
  %43 = load ptr, ptr %12, align 8
  %44 = load i8, ptr %16, align 1
  %45 = load ptr, ptr %15, align 8
  %46 = getelementptr inbounds %struct._ir_insn, ptr %45, i32 0, i32 1
  %47 = getelementptr inbounds %struct.anon.7, ptr %46, i32 0, i32 0
  %48 = load i32, ptr %47, align 8
  call void @ir_emit_load(ptr noundef %43, i32 noundef 6, i8 noundef signext %44, i32 noundef %48)
  br label %49

49:                                               ; preds = %40, %25
  %50 = load i8, ptr %16, align 1
  store i8 %50, ptr %6, align 1
  store i32 0, ptr %7, align 4
  store i8 -1, ptr %8, align 1
  store i32 1, ptr %9, align 4
  %51 = load i32, ptr %7, align 4
  %52 = zext i32 %51 to i64
  %53 = load i8, ptr %6, align 1
  %54 = zext i8 %53 to i64
  %55 = shl i64 %54, 32
  %56 = or i64 %52, %55
  %57 = load i8, ptr %8, align 1
  %58 = zext i8 %57 to i64
  %59 = shl i64 %58, 40
  %60 = or i64 %56, %59
  %61 = load i32, ptr %9, align 4
  %62 = trunc i32 %61 to i8
  %63 = zext i8 %62 to i64
  %64 = shl i64 %63, 48
  %65 = or i64 %60, %64
  store i64 %65, ptr %10, align 8
  %66 = load i64, ptr %10, align 8
  store i64 %66, ptr %11, align 8
  br label %88

67:                                               ; preds = %5
  %68 = load ptr, ptr %15, align 8
  %69 = getelementptr inbounds %struct._ir_insn, ptr %68, i32 0, i32 1
  %70 = getelementptr inbounds %struct.anon.7, ptr %69, i32 0, i32 0
  %71 = load i32, ptr %70, align 8
  %72 = icmp slt i32 %71, 0
  br i1 %72, label %73, label %80

73:                                               ; preds = %67
  %74 = load ptr, ptr %12, align 8
  %75 = load ptr, ptr %15, align 8
  %76 = getelementptr inbounds %struct._ir_insn, ptr %75, i32 0, i32 1
  %77 = getelementptr inbounds %struct.anon.7, ptr %76, i32 0, i32 0
  %78 = load i32, ptr %77, align 8
  %79 = call i64 @ir_fuse_addr_const(ptr noundef %74, i32 noundef %78)
  store i64 %79, ptr %11, align 8
  br label %88

80:                                               ; preds = %67
  %81 = load ptr, ptr %12, align 8
  %82 = load i32, ptr %13, align 4
  %83 = load ptr, ptr %15, align 8
  %84 = getelementptr inbounds %struct._ir_insn, ptr %83, i32 0, i32 1
  %85 = getelementptr inbounds %struct.anon.7, ptr %84, i32 0, i32 0
  %86 = load i32, ptr %85, align 8
  %87 = call i64 @ir_fuse_addr(ptr noundef %81, i32 noundef %82, i32 noundef %86)
  store i64 %87, ptr %11, align 8
  br label %88

88:                                               ; preds = %80, %73, %49
  %89 = load i64, ptr %11, align 8
  ret i64 %89
}