; Function Attrs: nounwind uwtable
define internal fastcc i64 @ir_fuse_mem(ptr noundef %0, i32 noundef %1, ptr nocapture noundef readonly %2, i8 noundef signext %3) unnamed_addr #1 {
  %.not = icmp eq i8 %3, -1
  br i1 %.not, label %14, label %5

5:                                                ; preds = %4
  %.not23 = icmp ugt i8 %3, 63
  %6 = getelementptr inbounds i8, ptr %2, i64 8
  %7 = load i32, ptr %6, align 8
  %8 = icmp slt i32 %7, 0
  %or.cond = select i1 %.not23, i1 true, i1 %8
  br i1 %or.cond, label %._crit_edge, label %10

._crit_edge:                                      ; preds = %5
  %9 = and i8 %3, 63
  tail call fastcc void @ir_emit_load(ptr noundef %0, i32 noundef 6, i8 noundef signext %9, i32 noundef %7)
  br label %10

10:                                               ; preds = %5, %._crit_edge
  %.0 = phi i8 [ %9, %._crit_edge ], [ %3, %5 ]
  %11 = zext nneg i8 %.0 to i64
  %12 = shl nuw nsw i64 %11, 32
  %13 = or disjoint i64 %12, 561850441793536
  br label %45

14:                                               ; preds = %4
  %15 = getelementptr inbounds i8, ptr %2, i64 8
  %16 = load i32, ptr %15, align 8
  %17 = icmp slt i32 %16, 0
  br i1 %17, label %18, label %43

18:                                               ; preds = %14
  %19 = load ptr, ptr %0, align 8
  %20 = sext i32 %16 to i64
  %21 = getelementptr inbounds %struct._ir_insn, ptr %19, i64 %20
  %22 = load i8, ptr %21, align 8
  %.off.i = add i8 %22, -66
  %switch.i = icmp ult i8 %.off.i, 3
  %23 = getelementptr inbounds i8, ptr %21, i64 8
  %24 = load i32, ptr %23, align 8
  br i1 %switch.i, label %25, label %41

25:                                               ; preds = %18
  %26 = tail call ptr @ir_get_str(ptr noundef nonnull %0, i32 noundef %24) #22
  %27 = getelementptr inbounds i8, ptr %0, i64 328
  %28 = load ptr, ptr %27, align 8
  %.not.i.i = icmp eq ptr %28, null
  br i1 %.not.i.i, label %36, label %29

29:                                               ; preds = %25
  %30 = getelementptr inbounds i8, ptr %28, i64 96
  %31 = load ptr, ptr %30, align 8
  %.not11.i.i = icmp eq ptr %31, null
  br i1 %.not11.i.i, label %36, label %32

32:                                               ; preds = %29
  %33 = load i8, ptr %21, align 8
  %34 = icmp eq i8 %33, 66
  %35 = tail call ptr %31(ptr noundef nonnull %28, ptr noundef %26, i1 noundef zeroext %34) #22
  br label %ir_sym_val.exit.i

36:                                               ; preds = %29, %25
  %37 = tail call ptr @dlsym(ptr noundef null, ptr noundef %26) #22
  br label %ir_sym_val.exit.i

ir_sym_val.exit.i:                                ; preds = %36, %32
  %38 = phi ptr [ %35, %32 ], [ %37, %36 ]
  %39 = ptrtoint ptr %38 to i64
  %40 = and i64 %39, 4294967295
  br label %ir_fuse_addr_const.exit

41:                                               ; preds = %18
  %42 = zext i32 %24 to i64
  br label %ir_fuse_addr_const.exit

ir_fuse_addr_const.exit:                          ; preds = %ir_sym_val.exit.i, %41
  %.0.in.i = phi i64 [ %40, %ir_sym_val.exit.i ], [ %42, %41 ]
  %.0.i = or disjoint i64 %.0.in.i, 562945658454016
  br label %45

43:                                               ; preds = %14
  %44 = tail call fastcc i64 @ir_fuse_addr(ptr noundef %0, i32 noundef %1, i32 noundef %16), !range !6
  br label %45

45:                                               ; preds = %43, %ir_fuse_addr_const.exit, %10
  %.020 = phi i64 [ %13, %10 ], [ %.0.i, %ir_fuse_addr_const.exit ], [ %44, %43 ]
  ret i64 %.020
}